ARM GAS  /tmp/ccPZIFzb.s 			page 1


   1              		.cpu cortex-m7
   2              		.arch armv7e-m
   3              		.fpu fpv5-d16
   4              		.eabi_attribute 28, 1
   5              		.eabi_attribute 20, 1
   6              		.eabi_attribute 21, 1
   7              		.eabi_attribute 23, 3
   8              		.eabi_attribute 24, 1
   9              		.eabi_attribute 25, 1
  10              		.eabi_attribute 26, 1
  11              		.eabi_attribute 30, 1
  12              		.eabi_attribute 34, 1
  13              		.eabi_attribute 18, 4
  14              		.file	"fmc.c"
  15              		.text
  16              	.Ltext0:
  17              		.cfi_sections	.debug_frame
  18              		.section	.text.HAL_FMC_MspInit,"ax",%progbits
  19              		.align	1
  20              		.syntax unified
  21              		.thumb
  22              		.thumb_func
  24              	HAL_FMC_MspInit:
  25              	.LFB336:
  26              		.file 1 "Src/fmc.c"
   1:Src/fmc.c     **** /* USER CODE BEGIN Header */
   2:Src/fmc.c     **** /**
   3:Src/fmc.c     ****   ******************************************************************************
   4:Src/fmc.c     ****   * File Name          : FMC.c
   5:Src/fmc.c     ****   * Description        : This file provides code for the configuration
   6:Src/fmc.c     ****   *                      of the FMC peripheral.
   7:Src/fmc.c     ****   ******************************************************************************
   8:Src/fmc.c     ****   * @attention
   9:Src/fmc.c     ****   *
  10:Src/fmc.c     ****   * Copyright (c) 2024 STMicroelectronics.
  11:Src/fmc.c     ****   * All rights reserved.
  12:Src/fmc.c     ****   *
  13:Src/fmc.c     ****   * This software is licensed under terms that can be found in the LICENSE file
  14:Src/fmc.c     ****   * in the root directory of this software component.
  15:Src/fmc.c     ****   * If no LICENSE file comes with this software, it is provided AS-IS.
  16:Src/fmc.c     ****   *
  17:Src/fmc.c     ****   ******************************************************************************
  18:Src/fmc.c     ****   */
  19:Src/fmc.c     **** /* USER CODE END Header */
  20:Src/fmc.c     **** 
  21:Src/fmc.c     **** /* Includes ------------------------------------------------------------------*/
  22:Src/fmc.c     **** #include "fmc.h"
  23:Src/fmc.c     **** 
  24:Src/fmc.c     **** /* USER CODE BEGIN 0 */
  25:Src/fmc.c     **** 
  26:Src/fmc.c     **** /* USER CODE END 0 */
  27:Src/fmc.c     **** 
  28:Src/fmc.c     **** SDRAM_HandleTypeDef hsdram1;
  29:Src/fmc.c     **** 
  30:Src/fmc.c     **** /* FMC initialization function */
  31:Src/fmc.c     **** void MX_FMC_Init(void)
  32:Src/fmc.c     **** {
ARM GAS  /tmp/ccPZIFzb.s 			page 2


  33:Src/fmc.c     ****   /* USER CODE BEGIN FMC_Init 0 */
  34:Src/fmc.c     **** 
  35:Src/fmc.c     ****   /* USER CODE END FMC_Init 0 */
  36:Src/fmc.c     **** 
  37:Src/fmc.c     ****   FMC_SDRAM_TimingTypeDef SdramTiming = {0};
  38:Src/fmc.c     **** 
  39:Src/fmc.c     ****   /* USER CODE BEGIN FMC_Init 1 */
  40:Src/fmc.c     **** 
  41:Src/fmc.c     ****   /* USER CODE END FMC_Init 1 */
  42:Src/fmc.c     **** 
  43:Src/fmc.c     ****   /** Perform the SDRAM1 memory initialization sequence
  44:Src/fmc.c     ****   */
  45:Src/fmc.c     ****   hsdram1.Instance = FMC_SDRAM_DEVICE;
  46:Src/fmc.c     ****   /* hsdram1.Init */
  47:Src/fmc.c     ****   hsdram1.Init.SDBank = FMC_SDRAM_BANK1;
  48:Src/fmc.c     ****   hsdram1.Init.ColumnBitsNumber = FMC_SDRAM_COLUMN_BITS_NUM_8;
  49:Src/fmc.c     ****   hsdram1.Init.RowBitsNumber = FMC_SDRAM_ROW_BITS_NUM_13;
  50:Src/fmc.c     ****   hsdram1.Init.MemoryDataWidth = FMC_SDRAM_MEM_BUS_WIDTH_16;
  51:Src/fmc.c     ****   hsdram1.Init.InternalBankNumber = FMC_SDRAM_INTERN_BANKS_NUM_4;
  52:Src/fmc.c     ****   hsdram1.Init.CASLatency = FMC_SDRAM_CAS_LATENCY_1;
  53:Src/fmc.c     ****   hsdram1.Init.WriteProtection = FMC_SDRAM_WRITE_PROTECTION_DISABLE;
  54:Src/fmc.c     ****   hsdram1.Init.SDClockPeriod = FMC_SDRAM_CLOCK_DISABLE;
  55:Src/fmc.c     ****   hsdram1.Init.ReadBurst = FMC_SDRAM_RBURST_DISABLE;
  56:Src/fmc.c     ****   hsdram1.Init.ReadPipeDelay = FMC_SDRAM_RPIPE_DELAY_0;
  57:Src/fmc.c     ****   /* SdramTiming */
  58:Src/fmc.c     ****   SdramTiming.LoadToActiveDelay = 16;
  59:Src/fmc.c     ****   SdramTiming.ExitSelfRefreshDelay = 16;
  60:Src/fmc.c     ****   SdramTiming.SelfRefreshTime = 16;
  61:Src/fmc.c     ****   SdramTiming.RowCycleDelay = 16;
  62:Src/fmc.c     ****   SdramTiming.WriteRecoveryTime = 16;
  63:Src/fmc.c     ****   SdramTiming.RPDelay = 16;
  64:Src/fmc.c     ****   SdramTiming.RCDDelay = 16;
  65:Src/fmc.c     **** 
  66:Src/fmc.c     ****   if (HAL_SDRAM_Init(&hsdram1, &SdramTiming) != HAL_OK)
  67:Src/fmc.c     ****   {
  68:Src/fmc.c     ****     Error_Handler( );
  69:Src/fmc.c     ****   }
  70:Src/fmc.c     **** 
  71:Src/fmc.c     ****   /* USER CODE BEGIN FMC_Init 2 */
  72:Src/fmc.c     **** 
  73:Src/fmc.c     ****   /* USER CODE END FMC_Init 2 */
  74:Src/fmc.c     **** }
  75:Src/fmc.c     **** 
  76:Src/fmc.c     **** static uint32_t FMC_Initialized = 0;
  77:Src/fmc.c     **** 
  78:Src/fmc.c     **** static void HAL_FMC_MspInit(void){
  27              		.loc 1 78 34 view -0
  28              		.cfi_startproc
  29              		@ args = 0, pretend = 0, frame = 224
  30              		@ frame_needed = 0, uses_anonymous_args = 0
  31 0000 F0B5     		push	{r4, r5, r6, r7, lr}
  32              	.LCFI0:
  33              		.cfi_def_cfa_offset 20
  34              		.cfi_offset 4, -20
  35              		.cfi_offset 5, -16
  36              		.cfi_offset 6, -12
  37              		.cfi_offset 7, -8
ARM GAS  /tmp/ccPZIFzb.s 			page 3


  38              		.cfi_offset 14, -4
  39 0002 B9B0     		sub	sp, sp, #228
  40              	.LCFI1:
  41              		.cfi_def_cfa_offset 248
  79:Src/fmc.c     ****   /* USER CODE BEGIN FMC_MspInit 0 */
  80:Src/fmc.c     **** 
  81:Src/fmc.c     ****   /* USER CODE END FMC_MspInit 0 */
  82:Src/fmc.c     ****   GPIO_InitTypeDef GPIO_InitStruct = {0};
  42              		.loc 1 82 3 view .LVU1
  43              		.loc 1 82 20 is_stmt 0 view .LVU2
  44 0004 0023     		movs	r3, #0
  45 0006 3393     		str	r3, [sp, #204]
  46 0008 3493     		str	r3, [sp, #208]
  47 000a 3593     		str	r3, [sp, #212]
  48 000c 3693     		str	r3, [sp, #216]
  49 000e 3793     		str	r3, [sp, #220]
  83:Src/fmc.c     ****   if (FMC_Initialized) {
  50              		.loc 1 83 3 is_stmt 1 view .LVU3
  51              		.loc 1 83 7 is_stmt 0 view .LVU4
  52 0010 354B     		ldr	r3, .L8
  53 0012 1B68     		ldr	r3, [r3]
  54              		.loc 1 83 6 view .LVU5
  55 0014 0BB1     		cbz	r3, .L6
  56              	.L1:
  84:Src/fmc.c     ****     return;
  85:Src/fmc.c     ****   }
  86:Src/fmc.c     ****   FMC_Initialized = 1;
  87:Src/fmc.c     ****   RCC_PeriphCLKInitTypeDef PeriphClkInitStruct = {0};
  88:Src/fmc.c     **** 
  89:Src/fmc.c     ****   /** Initializes the peripherals clock
  90:Src/fmc.c     ****   */
  91:Src/fmc.c     ****     PeriphClkInitStruct.PeriphClockSelection = RCC_PERIPHCLK_FMC;
  92:Src/fmc.c     ****     PeriphClkInitStruct.FmcClockSelection = RCC_FMCCLKSOURCE_D1HCLK;
  93:Src/fmc.c     ****     if (HAL_RCCEx_PeriphCLKConfig(&PeriphClkInitStruct) != HAL_OK)
  94:Src/fmc.c     ****     {
  95:Src/fmc.c     ****       Error_Handler();
  96:Src/fmc.c     ****     }
  97:Src/fmc.c     **** 
  98:Src/fmc.c     ****   /* Peripheral clock enable */
  99:Src/fmc.c     ****   __HAL_RCC_FMC_CLK_ENABLE();
 100:Src/fmc.c     **** 
 101:Src/fmc.c     ****   /** FMC GPIO Configuration
 102:Src/fmc.c     ****   PG15   ------> FMC_SDNCAS
 103:Src/fmc.c     ****   PD0   ------> FMC_D2
 104:Src/fmc.c     ****   PD1   ------> FMC_D3
 105:Src/fmc.c     ****   PG8   ------> FMC_SDCLK
 106:Src/fmc.c     ****   PF2   ------> FMC_A2
 107:Src/fmc.c     ****   PF1   ------> FMC_A1
 108:Src/fmc.c     ****   PF0   ------> FMC_A0
 109:Src/fmc.c     ****   PG5   ------> FMC_BA1
 110:Src/fmc.c     ****   PF3   ------> FMC_A3
 111:Src/fmc.c     ****   PG4   ------> FMC_BA0
 112:Src/fmc.c     ****   PG2   ------> FMC_A12
 113:Src/fmc.c     ****   PF5   ------> FMC_A5
 114:Src/fmc.c     ****   PF4   ------> FMC_A4
 115:Src/fmc.c     ****   PC0   ------> FMC_SDNWE
 116:Src/fmc.c     ****   PH2   ------> FMC_SDCKE0
ARM GAS  /tmp/ccPZIFzb.s 			page 4


 117:Src/fmc.c     ****   PE10   ------> FMC_D7
 118:Src/fmc.c     ****   PH3   ------> FMC_SDNE0
 119:Src/fmc.c     ****   PF13   ------> FMC_A7
 120:Src/fmc.c     ****   PF14   ------> FMC_A8
 121:Src/fmc.c     ****   PE9   ------> FMC_D6
 122:Src/fmc.c     ****   PE11   ------> FMC_D8
 123:Src/fmc.c     ****   PD15   ------> FMC_D1
 124:Src/fmc.c     ****   PD14   ------> FMC_D0
 125:Src/fmc.c     ****   PF12   ------> FMC_A6
 126:Src/fmc.c     ****   PF15   ------> FMC_A9
 127:Src/fmc.c     ****   PE12   ------> FMC_D9
 128:Src/fmc.c     ****   PE15   ------> FMC_D12
 129:Src/fmc.c     ****   PF11   ------> FMC_SDNRAS
 130:Src/fmc.c     ****   PG0   ------> FMC_A10
 131:Src/fmc.c     ****   PE8   ------> FMC_D5
 132:Src/fmc.c     ****   PE13   ------> FMC_D10
 133:Src/fmc.c     ****   PD10   ------> FMC_D15
 134:Src/fmc.c     ****   PD9   ------> FMC_D14
 135:Src/fmc.c     ****   PG1   ------> FMC_A11
 136:Src/fmc.c     ****   PE7   ------> FMC_D4
 137:Src/fmc.c     ****   PE14   ------> FMC_D11
 138:Src/fmc.c     ****   PD8   ------> FMC_D13
 139:Src/fmc.c     ****   */
 140:Src/fmc.c     ****   /* GPIO_InitStruct */
 141:Src/fmc.c     ****   GPIO_InitStruct.Pin = GPIO_PIN_15|GPIO_PIN_8|GPIO_PIN_5|GPIO_PIN_4
 142:Src/fmc.c     ****                           |GPIO_PIN_2|GPIO_PIN_0|GPIO_PIN_1;
 143:Src/fmc.c     ****   GPIO_InitStruct.Mode = GPIO_MODE_AF_PP;
 144:Src/fmc.c     ****   GPIO_InitStruct.Pull = GPIO_NOPULL;
 145:Src/fmc.c     ****   GPIO_InitStruct.Speed = GPIO_SPEED_FREQ_VERY_HIGH;
 146:Src/fmc.c     ****   GPIO_InitStruct.Alternate = GPIO_AF12_FMC;
 147:Src/fmc.c     **** 
 148:Src/fmc.c     ****   HAL_GPIO_Init(GPIOG, &GPIO_InitStruct);
 149:Src/fmc.c     **** 
 150:Src/fmc.c     ****   /* GPIO_InitStruct */
 151:Src/fmc.c     ****   GPIO_InitStruct.Pin = GPIO_PIN_0|GPIO_PIN_1|GPIO_PIN_15|GPIO_PIN_14
 152:Src/fmc.c     ****                           |GPIO_PIN_10|GPIO_PIN_9|GPIO_PIN_8;
 153:Src/fmc.c     ****   GPIO_InitStruct.Mode = GPIO_MODE_AF_PP;
 154:Src/fmc.c     ****   GPIO_InitStruct.Pull = GPIO_NOPULL;
 155:Src/fmc.c     ****   GPIO_InitStruct.Speed = GPIO_SPEED_FREQ_VERY_HIGH;
 156:Src/fmc.c     ****   GPIO_InitStruct.Alternate = GPIO_AF12_FMC;
 157:Src/fmc.c     **** 
 158:Src/fmc.c     ****   HAL_GPIO_Init(GPIOD, &GPIO_InitStruct);
 159:Src/fmc.c     **** 
 160:Src/fmc.c     ****   /* GPIO_InitStruct */
 161:Src/fmc.c     ****   GPIO_InitStruct.Pin = GPIO_PIN_2|GPIO_PIN_1|GPIO_PIN_0|GPIO_PIN_3
 162:Src/fmc.c     ****                           |GPIO_PIN_5|GPIO_PIN_4|GPIO_PIN_13|GPIO_PIN_14
 163:Src/fmc.c     ****                           |GPIO_PIN_12|GPIO_PIN_15|GPIO_PIN_11;
 164:Src/fmc.c     ****   GPIO_InitStruct.Mode = GPIO_MODE_AF_PP;
 165:Src/fmc.c     ****   GPIO_InitStruct.Pull = GPIO_NOPULL;
 166:Src/fmc.c     ****   GPIO_InitStruct.Speed = GPIO_SPEED_FREQ_VERY_HIGH;
 167:Src/fmc.c     ****   GPIO_InitStruct.Alternate = GPIO_AF12_FMC;
 168:Src/fmc.c     **** 
 169:Src/fmc.c     ****   HAL_GPIO_Init(GPIOF, &GPIO_InitStruct);
 170:Src/fmc.c     **** 
 171:Src/fmc.c     ****   /* GPIO_InitStruct */
 172:Src/fmc.c     ****   GPIO_InitStruct.Pin = GPIO_PIN_0;
 173:Src/fmc.c     ****   GPIO_InitStruct.Mode = GPIO_MODE_AF_PP;
ARM GAS  /tmp/ccPZIFzb.s 			page 5


 174:Src/fmc.c     ****   GPIO_InitStruct.Pull = GPIO_NOPULL;
 175:Src/fmc.c     ****   GPIO_InitStruct.Speed = GPIO_SPEED_FREQ_VERY_HIGH;
 176:Src/fmc.c     ****   GPIO_InitStruct.Alternate = GPIO_AF12_FMC;
 177:Src/fmc.c     **** 
 178:Src/fmc.c     ****   HAL_GPIO_Init(GPIOC, &GPIO_InitStruct);
 179:Src/fmc.c     **** 
 180:Src/fmc.c     ****   /* GPIO_InitStruct */
 181:Src/fmc.c     ****   GPIO_InitStruct.Pin = GPIO_PIN_2|GPIO_PIN_3;
 182:Src/fmc.c     ****   GPIO_InitStruct.Mode = GPIO_MODE_AF_PP;
 183:Src/fmc.c     ****   GPIO_InitStruct.Pull = GPIO_NOPULL;
 184:Src/fmc.c     ****   GPIO_InitStruct.Speed = GPIO_SPEED_FREQ_VERY_HIGH;
 185:Src/fmc.c     ****   GPIO_InitStruct.Alternate = GPIO_AF12_FMC;
 186:Src/fmc.c     **** 
 187:Src/fmc.c     ****   HAL_GPIO_Init(GPIOH, &GPIO_InitStruct);
 188:Src/fmc.c     **** 
 189:Src/fmc.c     ****   /* GPIO_InitStruct */
 190:Src/fmc.c     ****   GPIO_InitStruct.Pin = GPIO_PIN_10|GPIO_PIN_9|GPIO_PIN_11|GPIO_PIN_12
 191:Src/fmc.c     ****                           |GPIO_PIN_15|GPIO_PIN_8|GPIO_PIN_13|GPIO_PIN_7
 192:Src/fmc.c     ****                           |GPIO_PIN_14;
 193:Src/fmc.c     ****   GPIO_InitStruct.Mode = GPIO_MODE_AF_PP;
 194:Src/fmc.c     ****   GPIO_InitStruct.Pull = GPIO_NOPULL;
 195:Src/fmc.c     ****   GPIO_InitStruct.Speed = GPIO_SPEED_FREQ_VERY_HIGH;
 196:Src/fmc.c     ****   GPIO_InitStruct.Alternate = GPIO_AF12_FMC;
 197:Src/fmc.c     **** 
 198:Src/fmc.c     ****   HAL_GPIO_Init(GPIOE, &GPIO_InitStruct);
 199:Src/fmc.c     **** 
 200:Src/fmc.c     ****   /* USER CODE BEGIN FMC_MspInit 1 */
 201:Src/fmc.c     **** 
 202:Src/fmc.c     ****   /* USER CODE END FMC_MspInit 1 */
 203:Src/fmc.c     **** }
  57              		.loc 1 203 1 view .LVU6
  58 0016 39B0     		add	sp, sp, #228
  59              	.LCFI2:
  60              		.cfi_remember_state
  61              		.cfi_def_cfa_offset 20
  62              		@ sp needed
  63 0018 F0BD     		pop	{r4, r5, r6, r7, pc}
  64              	.L6:
  65              	.LCFI3:
  66              		.cfi_restore_state
  86:Src/fmc.c     ****   RCC_PeriphCLKInitTypeDef PeriphClkInitStruct = {0};
  67              		.loc 1 86 3 is_stmt 1 view .LVU7
  86:Src/fmc.c     ****   RCC_PeriphCLKInitTypeDef PeriphClkInitStruct = {0};
  68              		.loc 1 86 19 is_stmt 0 view .LVU8
  69 001a 334B     		ldr	r3, .L8
  70 001c 0122     		movs	r2, #1
  71 001e 1A60     		str	r2, [r3]
  87:Src/fmc.c     **** 
  72              		.loc 1 87 3 is_stmt 1 view .LVU9
  87:Src/fmc.c     **** 
  73              		.loc 1 87 28 is_stmt 0 view .LVU10
  74 0020 C022     		movs	r2, #192
  75 0022 0021     		movs	r1, #0
  76 0024 02A8     		add	r0, sp, #8
  77 0026 FFF7FEFF 		bl	memset
  78              	.LVL0:
  91:Src/fmc.c     ****     PeriphClkInitStruct.FmcClockSelection = RCC_FMCCLKSOURCE_D1HCLK;
ARM GAS  /tmp/ccPZIFzb.s 			page 6


  79              		.loc 1 91 5 is_stmt 1 view .LVU11
  91:Src/fmc.c     ****     PeriphClkInitStruct.FmcClockSelection = RCC_FMCCLKSOURCE_D1HCLK;
  80              		.loc 1 91 46 is_stmt 0 view .LVU12
  81 002a 4FF08072 		mov	r2, #16777216
  82 002e 0023     		movs	r3, #0
  83 0030 CDE90223 		strd	r2, [sp, #8]
  92:Src/fmc.c     ****     if (HAL_RCCEx_PeriphCLKConfig(&PeriphClkInitStruct) != HAL_OK)
  84              		.loc 1 92 5 is_stmt 1 view .LVU13
  93:Src/fmc.c     ****     {
  85              		.loc 1 93 5 view .LVU14
  93:Src/fmc.c     ****     {
  86              		.loc 1 93 9 is_stmt 0 view .LVU15
  87 0034 02A8     		add	r0, sp, #8
  88 0036 FFF7FEFF 		bl	HAL_RCCEx_PeriphCLKConfig
  89              	.LVL1:
  93:Src/fmc.c     ****     {
  90              		.loc 1 93 8 view .LVU16
  91 003a 0028     		cmp	r0, #0
  92 003c 50D1     		bne	.L7
  93              	.L4:
  99:Src/fmc.c     **** 
  94              		.loc 1 99 3 is_stmt 1 view .LVU17
  95              	.LBB2:
  99:Src/fmc.c     **** 
  96              		.loc 1 99 3 view .LVU18
  99:Src/fmc.c     **** 
  97              		.loc 1 99 3 view .LVU19
  98 003e 2B4B     		ldr	r3, .L8+4
  99 0040 D3F8D420 		ldr	r2, [r3, #212]
 100 0044 42F48052 		orr	r2, r2, #4096
 101 0048 C3F8D420 		str	r2, [r3, #212]
  99:Src/fmc.c     **** 
 102              		.loc 1 99 3 view .LVU20
 103 004c D3F8D430 		ldr	r3, [r3, #212]
 104 0050 03F48053 		and	r3, r3, #4096
 105 0054 0193     		str	r3, [sp, #4]
  99:Src/fmc.c     **** 
 106              		.loc 1 99 3 view .LVU21
 107 0056 019B     		ldr	r3, [sp, #4]
 108              	.LBE2:
  99:Src/fmc.c     **** 
 109              		.loc 1 99 3 view .LVU22
 141:Src/fmc.c     ****                           |GPIO_PIN_2|GPIO_PIN_0|GPIO_PIN_1;
 110              		.loc 1 141 3 view .LVU23
 141:Src/fmc.c     ****                           |GPIO_PIN_2|GPIO_PIN_0|GPIO_PIN_1;
 111              		.loc 1 141 23 is_stmt 0 view .LVU24
 112 0058 48F23713 		movw	r3, #33079
 113 005c 3393     		str	r3, [sp, #204]
 143:Src/fmc.c     ****   GPIO_InitStruct.Pull = GPIO_NOPULL;
 114              		.loc 1 143 3 is_stmt 1 view .LVU25
 143:Src/fmc.c     ****   GPIO_InitStruct.Pull = GPIO_NOPULL;
 115              		.loc 1 143 24 is_stmt 0 view .LVU26
 116 005e 0227     		movs	r7, #2
 117 0060 3497     		str	r7, [sp, #208]
 144:Src/fmc.c     ****   GPIO_InitStruct.Speed = GPIO_SPEED_FREQ_VERY_HIGH;
 118              		.loc 1 144 3 is_stmt 1 view .LVU27
 144:Src/fmc.c     ****   GPIO_InitStruct.Speed = GPIO_SPEED_FREQ_VERY_HIGH;
ARM GAS  /tmp/ccPZIFzb.s 			page 7


 119              		.loc 1 144 24 is_stmt 0 view .LVU28
 120 0062 0026     		movs	r6, #0
 121 0064 3596     		str	r6, [sp, #212]
 145:Src/fmc.c     ****   GPIO_InitStruct.Alternate = GPIO_AF12_FMC;
 122              		.loc 1 145 3 is_stmt 1 view .LVU29
 145:Src/fmc.c     ****   GPIO_InitStruct.Alternate = GPIO_AF12_FMC;
 123              		.loc 1 145 25 is_stmt 0 view .LVU30
 124 0066 0325     		movs	r5, #3
 125 0068 3695     		str	r5, [sp, #216]
 146:Src/fmc.c     **** 
 126              		.loc 1 146 3 is_stmt 1 view .LVU31
 146:Src/fmc.c     **** 
 127              		.loc 1 146 29 is_stmt 0 view .LVU32
 128 006a 0C24     		movs	r4, #12
 129 006c 3794     		str	r4, [sp, #220]
 148:Src/fmc.c     **** 
 130              		.loc 1 148 3 is_stmt 1 view .LVU33
 131 006e 33A9     		add	r1, sp, #204
 132 0070 1F48     		ldr	r0, .L8+8
 133 0072 FFF7FEFF 		bl	HAL_GPIO_Init
 134              	.LVL2:
 151:Src/fmc.c     ****                           |GPIO_PIN_10|GPIO_PIN_9|GPIO_PIN_8;
 135              		.loc 1 151 3 view .LVU34
 151:Src/fmc.c     ****                           |GPIO_PIN_10|GPIO_PIN_9|GPIO_PIN_8;
 136              		.loc 1 151 23 is_stmt 0 view .LVU35
 137 0076 4CF20373 		movw	r3, #50947
 138 007a 3393     		str	r3, [sp, #204]
 153:Src/fmc.c     ****   GPIO_InitStruct.Pull = GPIO_NOPULL;
 139              		.loc 1 153 3 is_stmt 1 view .LVU36
 153:Src/fmc.c     ****   GPIO_InitStruct.Pull = GPIO_NOPULL;
 140              		.loc 1 153 24 is_stmt 0 view .LVU37
 141 007c 3497     		str	r7, [sp, #208]
 154:Src/fmc.c     ****   GPIO_InitStruct.Speed = GPIO_SPEED_FREQ_VERY_HIGH;
 142              		.loc 1 154 3 is_stmt 1 view .LVU38
 154:Src/fmc.c     ****   GPIO_InitStruct.Speed = GPIO_SPEED_FREQ_VERY_HIGH;
 143              		.loc 1 154 24 is_stmt 0 view .LVU39
 144 007e 3596     		str	r6, [sp, #212]
 155:Src/fmc.c     ****   GPIO_InitStruct.Alternate = GPIO_AF12_FMC;
 145              		.loc 1 155 3 is_stmt 1 view .LVU40
 155:Src/fmc.c     ****   GPIO_InitStruct.Alternate = GPIO_AF12_FMC;
 146              		.loc 1 155 25 is_stmt 0 view .LVU41
 147 0080 3695     		str	r5, [sp, #216]
 156:Src/fmc.c     **** 
 148              		.loc 1 156 3 is_stmt 1 view .LVU42
 156:Src/fmc.c     **** 
 149              		.loc 1 156 29 is_stmt 0 view .LVU43
 150 0082 3794     		str	r4, [sp, #220]
 158:Src/fmc.c     **** 
 151              		.loc 1 158 3 is_stmt 1 view .LVU44
 152 0084 33A9     		add	r1, sp, #204
 153 0086 1B48     		ldr	r0, .L8+12
 154 0088 FFF7FEFF 		bl	HAL_GPIO_Init
 155              	.LVL3:
 161:Src/fmc.c     ****                           |GPIO_PIN_5|GPIO_PIN_4|GPIO_PIN_13|GPIO_PIN_14
 156              		.loc 1 161 3 view .LVU45
 161:Src/fmc.c     ****                           |GPIO_PIN_5|GPIO_PIN_4|GPIO_PIN_13|GPIO_PIN_14
 157              		.loc 1 161 23 is_stmt 0 view .LVU46
ARM GAS  /tmp/ccPZIFzb.s 			page 8


 158 008c 4FF63F03 		movw	r3, #63551
 159 0090 3393     		str	r3, [sp, #204]
 164:Src/fmc.c     ****   GPIO_InitStruct.Pull = GPIO_NOPULL;
 160              		.loc 1 164 3 is_stmt 1 view .LVU47
 164:Src/fmc.c     ****   GPIO_InitStruct.Pull = GPIO_NOPULL;
 161              		.loc 1 164 24 is_stmt 0 view .LVU48
 162 0092 3497     		str	r7, [sp, #208]
 165:Src/fmc.c     ****   GPIO_InitStruct.Speed = GPIO_SPEED_FREQ_VERY_HIGH;
 163              		.loc 1 165 3 is_stmt 1 view .LVU49
 165:Src/fmc.c     ****   GPIO_InitStruct.Speed = GPIO_SPEED_FREQ_VERY_HIGH;
 164              		.loc 1 165 24 is_stmt 0 view .LVU50
 165 0094 3596     		str	r6, [sp, #212]
 166:Src/fmc.c     ****   GPIO_InitStruct.Alternate = GPIO_AF12_FMC;
 166              		.loc 1 166 3 is_stmt 1 view .LVU51
 166:Src/fmc.c     ****   GPIO_InitStruct.Alternate = GPIO_AF12_FMC;
 167              		.loc 1 166 25 is_stmt 0 view .LVU52
 168 0096 3695     		str	r5, [sp, #216]
 167:Src/fmc.c     **** 
 169              		.loc 1 167 3 is_stmt 1 view .LVU53
 167:Src/fmc.c     **** 
 170              		.loc 1 167 29 is_stmt 0 view .LVU54
 171 0098 3794     		str	r4, [sp, #220]
 169:Src/fmc.c     **** 
 172              		.loc 1 169 3 is_stmt 1 view .LVU55
 173 009a 33A9     		add	r1, sp, #204
 174 009c 1648     		ldr	r0, .L8+16
 175 009e FFF7FEFF 		bl	HAL_GPIO_Init
 176              	.LVL4:
 172:Src/fmc.c     ****   GPIO_InitStruct.Mode = GPIO_MODE_AF_PP;
 177              		.loc 1 172 3 view .LVU56
 172:Src/fmc.c     ****   GPIO_InitStruct.Mode = GPIO_MODE_AF_PP;
 178              		.loc 1 172 23 is_stmt 0 view .LVU57
 179 00a2 0123     		movs	r3, #1
 180 00a4 3393     		str	r3, [sp, #204]
 173:Src/fmc.c     ****   GPIO_InitStruct.Pull = GPIO_NOPULL;
 181              		.loc 1 173 3 is_stmt 1 view .LVU58
 173:Src/fmc.c     ****   GPIO_InitStruct.Pull = GPIO_NOPULL;
 182              		.loc 1 173 24 is_stmt 0 view .LVU59
 183 00a6 3497     		str	r7, [sp, #208]
 174:Src/fmc.c     ****   GPIO_InitStruct.Speed = GPIO_SPEED_FREQ_VERY_HIGH;
 184              		.loc 1 174 3 is_stmt 1 view .LVU60
 174:Src/fmc.c     ****   GPIO_InitStruct.Speed = GPIO_SPEED_FREQ_VERY_HIGH;
 185              		.loc 1 174 24 is_stmt 0 view .LVU61
 186 00a8 3596     		str	r6, [sp, #212]
 175:Src/fmc.c     ****   GPIO_InitStruct.Alternate = GPIO_AF12_FMC;
 187              		.loc 1 175 3 is_stmt 1 view .LVU62
 175:Src/fmc.c     ****   GPIO_InitStruct.Alternate = GPIO_AF12_FMC;
 188              		.loc 1 175 25 is_stmt 0 view .LVU63
 189 00aa 3695     		str	r5, [sp, #216]
 176:Src/fmc.c     **** 
 190              		.loc 1 176 3 is_stmt 1 view .LVU64
 176:Src/fmc.c     **** 
 191              		.loc 1 176 29 is_stmt 0 view .LVU65
 192 00ac 3794     		str	r4, [sp, #220]
 178:Src/fmc.c     **** 
 193              		.loc 1 178 3 is_stmt 1 view .LVU66
 194 00ae 33A9     		add	r1, sp, #204
ARM GAS  /tmp/ccPZIFzb.s 			page 9


 195 00b0 1248     		ldr	r0, .L8+20
 196 00b2 FFF7FEFF 		bl	HAL_GPIO_Init
 197              	.LVL5:
 181:Src/fmc.c     ****   GPIO_InitStruct.Mode = GPIO_MODE_AF_PP;
 198              		.loc 1 181 3 view .LVU67
 181:Src/fmc.c     ****   GPIO_InitStruct.Mode = GPIO_MODE_AF_PP;
 199              		.loc 1 181 23 is_stmt 0 view .LVU68
 200 00b6 3394     		str	r4, [sp, #204]
 182:Src/fmc.c     ****   GPIO_InitStruct.Pull = GPIO_NOPULL;
 201              		.loc 1 182 3 is_stmt 1 view .LVU69
 182:Src/fmc.c     ****   GPIO_InitStruct.Pull = GPIO_NOPULL;
 202              		.loc 1 182 24 is_stmt 0 view .LVU70
 203 00b8 3497     		str	r7, [sp, #208]
 183:Src/fmc.c     ****   GPIO_InitStruct.Speed = GPIO_SPEED_FREQ_VERY_HIGH;
 204              		.loc 1 183 3 is_stmt 1 view .LVU71
 183:Src/fmc.c     ****   GPIO_InitStruct.Speed = GPIO_SPEED_FREQ_VERY_HIGH;
 205              		.loc 1 183 24 is_stmt 0 view .LVU72
 206 00ba 3596     		str	r6, [sp, #212]
 184:Src/fmc.c     ****   GPIO_InitStruct.Alternate = GPIO_AF12_FMC;
 207              		.loc 1 184 3 is_stmt 1 view .LVU73
 184:Src/fmc.c     ****   GPIO_InitStruct.Alternate = GPIO_AF12_FMC;
 208              		.loc 1 184 25 is_stmt 0 view .LVU74
 209 00bc 3695     		str	r5, [sp, #216]
 185:Src/fmc.c     **** 
 210              		.loc 1 185 3 is_stmt 1 view .LVU75
 185:Src/fmc.c     **** 
 211              		.loc 1 185 29 is_stmt 0 view .LVU76
 212 00be 3794     		str	r4, [sp, #220]
 187:Src/fmc.c     **** 
 213              		.loc 1 187 3 is_stmt 1 view .LVU77
 214 00c0 33A9     		add	r1, sp, #204
 215 00c2 0F48     		ldr	r0, .L8+24
 216 00c4 FFF7FEFF 		bl	HAL_GPIO_Init
 217              	.LVL6:
 190:Src/fmc.c     ****                           |GPIO_PIN_15|GPIO_PIN_8|GPIO_PIN_13|GPIO_PIN_7
 218              		.loc 1 190 3 view .LVU78
 190:Src/fmc.c     ****                           |GPIO_PIN_15|GPIO_PIN_8|GPIO_PIN_13|GPIO_PIN_7
 219              		.loc 1 190 23 is_stmt 0 view .LVU79
 220 00c8 4FF68073 		movw	r3, #65408
 221 00cc 3393     		str	r3, [sp, #204]
 193:Src/fmc.c     ****   GPIO_InitStruct.Pull = GPIO_NOPULL;
 222              		.loc 1 193 3 is_stmt 1 view .LVU80
 193:Src/fmc.c     ****   GPIO_InitStruct.Pull = GPIO_NOPULL;
 223              		.loc 1 193 24 is_stmt 0 view .LVU81
 224 00ce 3497     		str	r7, [sp, #208]
 194:Src/fmc.c     ****   GPIO_InitStruct.Speed = GPIO_SPEED_FREQ_VERY_HIGH;
 225              		.loc 1 194 3 is_stmt 1 view .LVU82
 194:Src/fmc.c     ****   GPIO_InitStruct.Speed = GPIO_SPEED_FREQ_VERY_HIGH;
 226              		.loc 1 194 24 is_stmt 0 view .LVU83
 227 00d0 3596     		str	r6, [sp, #212]
 195:Src/fmc.c     ****   GPIO_InitStruct.Alternate = GPIO_AF12_FMC;
 228              		.loc 1 195 3 is_stmt 1 view .LVU84
 195:Src/fmc.c     ****   GPIO_InitStruct.Alternate = GPIO_AF12_FMC;
 229              		.loc 1 195 25 is_stmt 0 view .LVU85
 230 00d2 3695     		str	r5, [sp, #216]
 196:Src/fmc.c     **** 
 231              		.loc 1 196 3 is_stmt 1 view .LVU86
ARM GAS  /tmp/ccPZIFzb.s 			page 10


 196:Src/fmc.c     **** 
 232              		.loc 1 196 29 is_stmt 0 view .LVU87
 233 00d4 3794     		str	r4, [sp, #220]
 198:Src/fmc.c     **** 
 234              		.loc 1 198 3 is_stmt 1 view .LVU88
 235 00d6 33A9     		add	r1, sp, #204
 236 00d8 0A48     		ldr	r0, .L8+28
 237 00da FFF7FEFF 		bl	HAL_GPIO_Init
 238              	.LVL7:
 239 00de 9AE7     		b	.L1
 240              	.L7:
  95:Src/fmc.c     ****     }
 241              		.loc 1 95 7 view .LVU89
 242 00e0 FFF7FEFF 		bl	Error_Handler
 243              	.LVL8:
 244 00e4 ABE7     		b	.L4
 245              	.L9:
 246 00e6 00BF     		.align	2
 247              	.L8:
 248 00e8 00000000 		.word	.LANCHOR0
 249 00ec 00440258 		.word	1476543488
 250 00f0 00180258 		.word	1476532224
 251 00f4 000C0258 		.word	1476529152
 252 00f8 00140258 		.word	1476531200
 253 00fc 00080258 		.word	1476528128
 254 0100 001C0258 		.word	1476533248
 255 0104 00100258 		.word	1476530176
 256              		.cfi_endproc
 257              	.LFE336:
 259              		.section	.text.HAL_FMC_MspDeInit,"ax",%progbits
 260              		.align	1
 261              		.syntax unified
 262              		.thumb
 263              		.thumb_func
 265              	HAL_FMC_MspDeInit:
 266              	.LFB338:
 204:Src/fmc.c     **** 
 205:Src/fmc.c     **** void HAL_SDRAM_MspInit(SDRAM_HandleTypeDef* sdramHandle){
 206:Src/fmc.c     ****   /* USER CODE BEGIN SDRAM_MspInit 0 */
 207:Src/fmc.c     **** 
 208:Src/fmc.c     ****   /* USER CODE END SDRAM_MspInit 0 */
 209:Src/fmc.c     ****   HAL_FMC_MspInit();
 210:Src/fmc.c     ****   /* USER CODE BEGIN SDRAM_MspInit 1 */
 211:Src/fmc.c     **** 
 212:Src/fmc.c     ****   /* USER CODE END SDRAM_MspInit 1 */
 213:Src/fmc.c     **** }
 214:Src/fmc.c     **** 
 215:Src/fmc.c     **** static uint32_t FMC_DeInitialized = 0;
 216:Src/fmc.c     **** 
 217:Src/fmc.c     **** static void HAL_FMC_MspDeInit(void){
 267              		.loc 1 217 36 view -0
 268              		.cfi_startproc
 269              		@ args = 0, pretend = 0, frame = 0
 270              		@ frame_needed = 0, uses_anonymous_args = 0
 218:Src/fmc.c     ****   /* USER CODE BEGIN FMC_MspDeInit 0 */
 219:Src/fmc.c     **** 
 220:Src/fmc.c     ****   /* USER CODE END FMC_MspDeInit 0 */
ARM GAS  /tmp/ccPZIFzb.s 			page 11


 221:Src/fmc.c     ****   if (FMC_DeInitialized) {
 271              		.loc 1 221 3 view .LVU91
 272              		.loc 1 221 7 is_stmt 0 view .LVU92
 273 0000 154B     		ldr	r3, .L17
 274 0002 1B68     		ldr	r3, [r3]
 275              		.loc 1 221 6 view .LVU93
 276 0004 03B1     		cbz	r3, .L16
 277 0006 7047     		bx	lr
 278              	.L16:
 217:Src/fmc.c     ****   /* USER CODE BEGIN FMC_MspDeInit 0 */
 279              		.loc 1 217 36 view .LVU94
 280 0008 10B5     		push	{r4, lr}
 281              	.LCFI4:
 282              		.cfi_def_cfa_offset 8
 283              		.cfi_offset 4, -8
 284              		.cfi_offset 14, -4
 222:Src/fmc.c     ****     return;
 223:Src/fmc.c     ****   }
 224:Src/fmc.c     ****   FMC_DeInitialized = 1;
 285              		.loc 1 224 3 is_stmt 1 view .LVU95
 286              		.loc 1 224 21 is_stmt 0 view .LVU96
 287 000a 0124     		movs	r4, #1
 288 000c 124B     		ldr	r3, .L17
 289 000e 1C60     		str	r4, [r3]
 225:Src/fmc.c     ****   /* Peripheral clock enable */
 226:Src/fmc.c     ****   __HAL_RCC_FMC_CLK_DISABLE();
 290              		.loc 1 226 3 is_stmt 1 view .LVU97
 291 0010 124A     		ldr	r2, .L17+4
 292 0012 D2F8D430 		ldr	r3, [r2, #212]
 293 0016 23F48053 		bic	r3, r3, #4096
 294 001a C2F8D430 		str	r3, [r2, #212]
 227:Src/fmc.c     **** 
 228:Src/fmc.c     ****   /** FMC GPIO Configuration
 229:Src/fmc.c     ****   PG15   ------> FMC_SDNCAS
 230:Src/fmc.c     ****   PD0   ------> FMC_D2
 231:Src/fmc.c     ****   PD1   ------> FMC_D3
 232:Src/fmc.c     ****   PG8   ------> FMC_SDCLK
 233:Src/fmc.c     ****   PF2   ------> FMC_A2
 234:Src/fmc.c     ****   PF1   ------> FMC_A1
 235:Src/fmc.c     ****   PF0   ------> FMC_A0
 236:Src/fmc.c     ****   PG5   ------> FMC_BA1
 237:Src/fmc.c     ****   PF3   ------> FMC_A3
 238:Src/fmc.c     ****   PG4   ------> FMC_BA0
 239:Src/fmc.c     ****   PG2   ------> FMC_A12
 240:Src/fmc.c     ****   PF5   ------> FMC_A5
 241:Src/fmc.c     ****   PF4   ------> FMC_A4
 242:Src/fmc.c     ****   PC0   ------> FMC_SDNWE
 243:Src/fmc.c     ****   PH2   ------> FMC_SDCKE0
 244:Src/fmc.c     ****   PE10   ------> FMC_D7
 245:Src/fmc.c     ****   PH3   ------> FMC_SDNE0
 246:Src/fmc.c     ****   PF13   ------> FMC_A7
 247:Src/fmc.c     ****   PF14   ------> FMC_A8
 248:Src/fmc.c     ****   PE9   ------> FMC_D6
 249:Src/fmc.c     ****   PE11   ------> FMC_D8
 250:Src/fmc.c     ****   PD15   ------> FMC_D1
 251:Src/fmc.c     ****   PD14   ------> FMC_D0
 252:Src/fmc.c     ****   PF12   ------> FMC_A6
ARM GAS  /tmp/ccPZIFzb.s 			page 12


 253:Src/fmc.c     ****   PF15   ------> FMC_A9
 254:Src/fmc.c     ****   PE12   ------> FMC_D9
 255:Src/fmc.c     ****   PE15   ------> FMC_D12
 256:Src/fmc.c     ****   PF11   ------> FMC_SDNRAS
 257:Src/fmc.c     ****   PG0   ------> FMC_A10
 258:Src/fmc.c     ****   PE8   ------> FMC_D5
 259:Src/fmc.c     ****   PE13   ------> FMC_D10
 260:Src/fmc.c     ****   PD10   ------> FMC_D15
 261:Src/fmc.c     ****   PD9   ------> FMC_D14
 262:Src/fmc.c     ****   PG1   ------> FMC_A11
 263:Src/fmc.c     ****   PE7   ------> FMC_D4
 264:Src/fmc.c     ****   PE14   ------> FMC_D11
 265:Src/fmc.c     ****   PD8   ------> FMC_D13
 266:Src/fmc.c     ****   */
 267:Src/fmc.c     **** 
 268:Src/fmc.c     ****   HAL_GPIO_DeInit(GPIOG, GPIO_PIN_15|GPIO_PIN_8|GPIO_PIN_5|GPIO_PIN_4
 295              		.loc 1 268 3 view .LVU98
 296 001e 48F23711 		movw	r1, #33079
 297 0022 0F48     		ldr	r0, .L17+8
 298 0024 FFF7FEFF 		bl	HAL_GPIO_DeInit
 299              	.LVL9:
 269:Src/fmc.c     ****                           |GPIO_PIN_2|GPIO_PIN_0|GPIO_PIN_1);
 270:Src/fmc.c     **** 
 271:Src/fmc.c     ****   HAL_GPIO_DeInit(GPIOD, GPIO_PIN_0|GPIO_PIN_1|GPIO_PIN_15|GPIO_PIN_14
 300              		.loc 1 271 3 view .LVU99
 301 0028 4CF20371 		movw	r1, #50947
 302 002c 0D48     		ldr	r0, .L17+12
 303 002e FFF7FEFF 		bl	HAL_GPIO_DeInit
 304              	.LVL10:
 272:Src/fmc.c     ****                           |GPIO_PIN_10|GPIO_PIN_9|GPIO_PIN_8);
 273:Src/fmc.c     **** 
 274:Src/fmc.c     ****   HAL_GPIO_DeInit(GPIOF, GPIO_PIN_2|GPIO_PIN_1|GPIO_PIN_0|GPIO_PIN_3
 305              		.loc 1 274 3 view .LVU100
 306 0032 4FF63F01 		movw	r1, #63551
 307 0036 0C48     		ldr	r0, .L17+16
 308 0038 FFF7FEFF 		bl	HAL_GPIO_DeInit
 309              	.LVL11:
 275:Src/fmc.c     ****                           |GPIO_PIN_5|GPIO_PIN_4|GPIO_PIN_13|GPIO_PIN_14
 276:Src/fmc.c     ****                           |GPIO_PIN_12|GPIO_PIN_15|GPIO_PIN_11);
 277:Src/fmc.c     **** 
 278:Src/fmc.c     ****   HAL_GPIO_DeInit(GPIOC, GPIO_PIN_0);
 310              		.loc 1 278 3 view .LVU101
 311 003c 2146     		mov	r1, r4
 312 003e 0B48     		ldr	r0, .L17+20
 313 0040 FFF7FEFF 		bl	HAL_GPIO_DeInit
 314              	.LVL12:
 279:Src/fmc.c     **** 
 280:Src/fmc.c     ****   HAL_GPIO_DeInit(GPIOH, GPIO_PIN_2|GPIO_PIN_3);
 315              		.loc 1 280 3 view .LVU102
 316 0044 0C21     		movs	r1, #12
 317 0046 0A48     		ldr	r0, .L17+24
 318 0048 FFF7FEFF 		bl	HAL_GPIO_DeInit
 319              	.LVL13:
 281:Src/fmc.c     **** 
 282:Src/fmc.c     ****   HAL_GPIO_DeInit(GPIOE, GPIO_PIN_10|GPIO_PIN_9|GPIO_PIN_11|GPIO_PIN_12
 320              		.loc 1 282 3 view .LVU103
 321 004c 4FF68071 		movw	r1, #65408
ARM GAS  /tmp/ccPZIFzb.s 			page 13


 322 0050 0848     		ldr	r0, .L17+28
 323 0052 FFF7FEFF 		bl	HAL_GPIO_DeInit
 324              	.LVL14:
 283:Src/fmc.c     ****                           |GPIO_PIN_15|GPIO_PIN_8|GPIO_PIN_13|GPIO_PIN_7
 284:Src/fmc.c     ****                           |GPIO_PIN_14);
 285:Src/fmc.c     **** 
 286:Src/fmc.c     ****   /* USER CODE BEGIN FMC_MspDeInit 1 */
 287:Src/fmc.c     **** 
 288:Src/fmc.c     ****   /* USER CODE END FMC_MspDeInit 1 */
 289:Src/fmc.c     **** }
 325              		.loc 1 289 1 is_stmt 0 view .LVU104
 326 0056 10BD     		pop	{r4, pc}
 327              	.L18:
 328              		.align	2
 329              	.L17:
 330 0058 00000000 		.word	.LANCHOR1
 331 005c 00440258 		.word	1476543488
 332 0060 00180258 		.word	1476532224
 333 0064 000C0258 		.word	1476529152
 334 0068 00140258 		.word	1476531200
 335 006c 00080258 		.word	1476528128
 336 0070 001C0258 		.word	1476533248
 337 0074 00100258 		.word	1476530176
 338              		.cfi_endproc
 339              	.LFE338:
 341              		.section	.text.MX_FMC_Init,"ax",%progbits
 342              		.align	1
 343              		.global	MX_FMC_Init
 344              		.syntax unified
 345              		.thumb
 346              		.thumb_func
 348              	MX_FMC_Init:
 349              	.LFB335:
  32:Src/fmc.c     ****   /* USER CODE BEGIN FMC_Init 0 */
 350              		.loc 1 32 1 is_stmt 1 view -0
 351              		.cfi_startproc
 352              		@ args = 0, pretend = 0, frame = 32
 353              		@ frame_needed = 0, uses_anonymous_args = 0
 354 0000 00B5     		push	{lr}
 355              	.LCFI5:
 356              		.cfi_def_cfa_offset 4
 357              		.cfi_offset 14, -4
 358 0002 89B0     		sub	sp, sp, #36
 359              	.LCFI6:
 360              		.cfi_def_cfa_offset 40
  37:Src/fmc.c     **** 
 361              		.loc 1 37 3 view .LVU106
  37:Src/fmc.c     **** 
 362              		.loc 1 37 27 is_stmt 0 view .LVU107
 363 0004 0023     		movs	r3, #0
 364 0006 0193     		str	r3, [sp, #4]
 365 0008 0293     		str	r3, [sp, #8]
 366 000a 0393     		str	r3, [sp, #12]
 367 000c 0493     		str	r3, [sp, #16]
 368 000e 0593     		str	r3, [sp, #20]
 369 0010 0693     		str	r3, [sp, #24]
 370 0012 0793     		str	r3, [sp, #28]
ARM GAS  /tmp/ccPZIFzb.s 			page 14


  45:Src/fmc.c     ****   /* hsdram1.Init */
 371              		.loc 1 45 3 is_stmt 1 view .LVU108
  45:Src/fmc.c     ****   /* hsdram1.Init */
 372              		.loc 1 45 20 is_stmt 0 view .LVU109
 373 0014 1048     		ldr	r0, .L23
 374 0016 114A     		ldr	r2, .L23+4
 375 0018 0260     		str	r2, [r0]
  47:Src/fmc.c     ****   hsdram1.Init.ColumnBitsNumber = FMC_SDRAM_COLUMN_BITS_NUM_8;
 376              		.loc 1 47 3 is_stmt 1 view .LVU110
  47:Src/fmc.c     ****   hsdram1.Init.ColumnBitsNumber = FMC_SDRAM_COLUMN_BITS_NUM_8;
 377              		.loc 1 47 23 is_stmt 0 view .LVU111
 378 001a 4360     		str	r3, [r0, #4]
  48:Src/fmc.c     ****   hsdram1.Init.RowBitsNumber = FMC_SDRAM_ROW_BITS_NUM_13;
 379              		.loc 1 48 3 is_stmt 1 view .LVU112
  48:Src/fmc.c     ****   hsdram1.Init.RowBitsNumber = FMC_SDRAM_ROW_BITS_NUM_13;
 380              		.loc 1 48 33 is_stmt 0 view .LVU113
 381 001c 8360     		str	r3, [r0, #8]
  49:Src/fmc.c     ****   hsdram1.Init.MemoryDataWidth = FMC_SDRAM_MEM_BUS_WIDTH_16;
 382              		.loc 1 49 3 is_stmt 1 view .LVU114
  49:Src/fmc.c     ****   hsdram1.Init.MemoryDataWidth = FMC_SDRAM_MEM_BUS_WIDTH_16;
 383              		.loc 1 49 30 is_stmt 0 view .LVU115
 384 001e 0822     		movs	r2, #8
 385 0020 C260     		str	r2, [r0, #12]
  50:Src/fmc.c     ****   hsdram1.Init.InternalBankNumber = FMC_SDRAM_INTERN_BANKS_NUM_4;
 386              		.loc 1 50 3 is_stmt 1 view .LVU116
  50:Src/fmc.c     ****   hsdram1.Init.InternalBankNumber = FMC_SDRAM_INTERN_BANKS_NUM_4;
 387              		.loc 1 50 32 is_stmt 0 view .LVU117
 388 0022 1022     		movs	r2, #16
 389 0024 0261     		str	r2, [r0, #16]
  51:Src/fmc.c     ****   hsdram1.Init.CASLatency = FMC_SDRAM_CAS_LATENCY_1;
 390              		.loc 1 51 3 is_stmt 1 view .LVU118
  51:Src/fmc.c     ****   hsdram1.Init.CASLatency = FMC_SDRAM_CAS_LATENCY_1;
 391              		.loc 1 51 35 is_stmt 0 view .LVU119
 392 0026 4021     		movs	r1, #64
 393 0028 4161     		str	r1, [r0, #20]
  52:Src/fmc.c     ****   hsdram1.Init.WriteProtection = FMC_SDRAM_WRITE_PROTECTION_DISABLE;
 394              		.loc 1 52 3 is_stmt 1 view .LVU120
  52:Src/fmc.c     ****   hsdram1.Init.WriteProtection = FMC_SDRAM_WRITE_PROTECTION_DISABLE;
 395              		.loc 1 52 27 is_stmt 0 view .LVU121
 396 002a 8021     		movs	r1, #128
 397 002c 8161     		str	r1, [r0, #24]
  53:Src/fmc.c     ****   hsdram1.Init.SDClockPeriod = FMC_SDRAM_CLOCK_DISABLE;
 398              		.loc 1 53 3 is_stmt 1 view .LVU122
  53:Src/fmc.c     ****   hsdram1.Init.SDClockPeriod = FMC_SDRAM_CLOCK_DISABLE;
 399              		.loc 1 53 32 is_stmt 0 view .LVU123
 400 002e C361     		str	r3, [r0, #28]
  54:Src/fmc.c     ****   hsdram1.Init.ReadBurst = FMC_SDRAM_RBURST_DISABLE;
 401              		.loc 1 54 3 is_stmt 1 view .LVU124
  54:Src/fmc.c     ****   hsdram1.Init.ReadBurst = FMC_SDRAM_RBURST_DISABLE;
 402              		.loc 1 54 30 is_stmt 0 view .LVU125
 403 0030 0362     		str	r3, [r0, #32]
  55:Src/fmc.c     ****   hsdram1.Init.ReadPipeDelay = FMC_SDRAM_RPIPE_DELAY_0;
 404              		.loc 1 55 3 is_stmt 1 view .LVU126
  55:Src/fmc.c     ****   hsdram1.Init.ReadPipeDelay = FMC_SDRAM_RPIPE_DELAY_0;
 405              		.loc 1 55 26 is_stmt 0 view .LVU127
 406 0032 4362     		str	r3, [r0, #36]
  56:Src/fmc.c     ****   /* SdramTiming */
ARM GAS  /tmp/ccPZIFzb.s 			page 15


 407              		.loc 1 56 3 is_stmt 1 view .LVU128
  56:Src/fmc.c     ****   /* SdramTiming */
 408              		.loc 1 56 30 is_stmt 0 view .LVU129
 409 0034 8362     		str	r3, [r0, #40]
  58:Src/fmc.c     ****   SdramTiming.ExitSelfRefreshDelay = 16;
 410              		.loc 1 58 3 is_stmt 1 view .LVU130
  58:Src/fmc.c     ****   SdramTiming.ExitSelfRefreshDelay = 16;
 411              		.loc 1 58 33 is_stmt 0 view .LVU131
 412 0036 0192     		str	r2, [sp, #4]
  59:Src/fmc.c     ****   SdramTiming.SelfRefreshTime = 16;
 413              		.loc 1 59 3 is_stmt 1 view .LVU132
  59:Src/fmc.c     ****   SdramTiming.SelfRefreshTime = 16;
 414              		.loc 1 59 36 is_stmt 0 view .LVU133
 415 0038 0292     		str	r2, [sp, #8]
  60:Src/fmc.c     ****   SdramTiming.RowCycleDelay = 16;
 416              		.loc 1 60 3 is_stmt 1 view .LVU134
  60:Src/fmc.c     ****   SdramTiming.RowCycleDelay = 16;
 417              		.loc 1 60 31 is_stmt 0 view .LVU135
 418 003a 0392     		str	r2, [sp, #12]
  61:Src/fmc.c     ****   SdramTiming.WriteRecoveryTime = 16;
 419              		.loc 1 61 3 is_stmt 1 view .LVU136
  61:Src/fmc.c     ****   SdramTiming.WriteRecoveryTime = 16;
 420              		.loc 1 61 29 is_stmt 0 view .LVU137
 421 003c 0492     		str	r2, [sp, #16]
  62:Src/fmc.c     ****   SdramTiming.RPDelay = 16;
 422              		.loc 1 62 3 is_stmt 1 view .LVU138
  62:Src/fmc.c     ****   SdramTiming.RPDelay = 16;
 423              		.loc 1 62 33 is_stmt 0 view .LVU139
 424 003e 0592     		str	r2, [sp, #20]
  63:Src/fmc.c     ****   SdramTiming.RCDDelay = 16;
 425              		.loc 1 63 3 is_stmt 1 view .LVU140
  63:Src/fmc.c     ****   SdramTiming.RCDDelay = 16;
 426              		.loc 1 63 23 is_stmt 0 view .LVU141
 427 0040 0692     		str	r2, [sp, #24]
  64:Src/fmc.c     **** 
 428              		.loc 1 64 3 is_stmt 1 view .LVU142
  64:Src/fmc.c     **** 
 429              		.loc 1 64 24 is_stmt 0 view .LVU143
 430 0042 0792     		str	r2, [sp, #28]
  66:Src/fmc.c     ****   {
 431              		.loc 1 66 3 is_stmt 1 view .LVU144
  66:Src/fmc.c     ****   {
 432              		.loc 1 66 7 is_stmt 0 view .LVU145
 433 0044 01A9     		add	r1, sp, #4
 434 0046 FFF7FEFF 		bl	HAL_SDRAM_Init
 435              	.LVL15:
  66:Src/fmc.c     ****   {
 436              		.loc 1 66 6 view .LVU146
 437 004a 10B9     		cbnz	r0, .L22
 438              	.L19:
  74:Src/fmc.c     **** 
 439              		.loc 1 74 1 view .LVU147
 440 004c 09B0     		add	sp, sp, #36
 441              	.LCFI7:
 442              		.cfi_remember_state
 443              		.cfi_def_cfa_offset 4
 444              		@ sp needed
ARM GAS  /tmp/ccPZIFzb.s 			page 16


 445 004e 5DF804FB 		ldr	pc, [sp], #4
 446              	.L22:
 447              	.LCFI8:
 448              		.cfi_restore_state
  68:Src/fmc.c     ****   }
 449              		.loc 1 68 5 is_stmt 1 view .LVU148
 450 0052 FFF7FEFF 		bl	Error_Handler
 451              	.LVL16:
  74:Src/fmc.c     **** 
 452              		.loc 1 74 1 is_stmt 0 view .LVU149
 453 0056 F9E7     		b	.L19
 454              	.L24:
 455              		.align	2
 456              	.L23:
 457 0058 00000000 		.word	.LANCHOR2
 458 005c 40410052 		.word	1375748416
 459              		.cfi_endproc
 460              	.LFE335:
 462              		.section	.text.HAL_SDRAM_MspInit,"ax",%progbits
 463              		.align	1
 464              		.global	HAL_SDRAM_MspInit
 465              		.syntax unified
 466              		.thumb
 467              		.thumb_func
 469              	HAL_SDRAM_MspInit:
 470              	.LVL17:
 471              	.LFB337:
 205:Src/fmc.c     ****   /* USER CODE BEGIN SDRAM_MspInit 0 */
 472              		.loc 1 205 57 is_stmt 1 view -0
 473              		.cfi_startproc
 474              		@ args = 0, pretend = 0, frame = 0
 475              		@ frame_needed = 0, uses_anonymous_args = 0
 205:Src/fmc.c     ****   /* USER CODE BEGIN SDRAM_MspInit 0 */
 476              		.loc 1 205 57 is_stmt 0 view .LVU151
 477 0000 08B5     		push	{r3, lr}
 478              	.LCFI9:
 479              		.cfi_def_cfa_offset 8
 480              		.cfi_offset 3, -8
 481              		.cfi_offset 14, -4
 209:Src/fmc.c     ****   /* USER CODE BEGIN SDRAM_MspInit 1 */
 482              		.loc 1 209 3 is_stmt 1 view .LVU152
 483 0002 FFF7FEFF 		bl	HAL_FMC_MspInit
 484              	.LVL18:
 213:Src/fmc.c     **** 
 485              		.loc 1 213 1 is_stmt 0 view .LVU153
 486 0006 08BD     		pop	{r3, pc}
 487              		.cfi_endproc
 488              	.LFE337:
 490              		.section	.text.HAL_SDRAM_MspDeInit,"ax",%progbits
 491              		.align	1
 492              		.global	HAL_SDRAM_MspDeInit
 493              		.syntax unified
 494              		.thumb
 495              		.thumb_func
 497              	HAL_SDRAM_MspDeInit:
 498              	.LVL19:
 499              	.LFB339:
ARM GAS  /tmp/ccPZIFzb.s 			page 17


 290:Src/fmc.c     **** 
 291:Src/fmc.c     **** void HAL_SDRAM_MspDeInit(SDRAM_HandleTypeDef* sdramHandle){
 500              		.loc 1 291 59 is_stmt 1 view -0
 501              		.cfi_startproc
 502              		@ args = 0, pretend = 0, frame = 0
 503              		@ frame_needed = 0, uses_anonymous_args = 0
 504              		.loc 1 291 59 is_stmt 0 view .LVU155
 505 0000 08B5     		push	{r3, lr}
 506              	.LCFI10:
 507              		.cfi_def_cfa_offset 8
 508              		.cfi_offset 3, -8
 509              		.cfi_offset 14, -4
 292:Src/fmc.c     ****   /* USER CODE BEGIN SDRAM_MspDeInit 0 */
 293:Src/fmc.c     **** 
 294:Src/fmc.c     ****   /* USER CODE END SDRAM_MspDeInit 0 */
 295:Src/fmc.c     ****   HAL_FMC_MspDeInit();
 510              		.loc 1 295 3 is_stmt 1 view .LVU156
 511 0002 FFF7FEFF 		bl	HAL_FMC_MspDeInit
 512              	.LVL20:
 296:Src/fmc.c     ****   /* USER CODE BEGIN SDRAM_MspDeInit 1 */
 297:Src/fmc.c     **** 
 298:Src/fmc.c     ****   /* USER CODE END SDRAM_MspDeInit 1 */
 299:Src/fmc.c     **** }
 513              		.loc 1 299 1 is_stmt 0 view .LVU157
 514 0006 08BD     		pop	{r3, pc}
 515              		.cfi_endproc
 516              	.LFE339:
 518              		.global	hsdram1
 519              		.section	.bss.FMC_DeInitialized,"aw",%nobits
 520              		.align	2
 521              		.set	.LANCHOR1,. + 0
 524              	FMC_DeInitialized:
 525 0000 00000000 		.space	4
 526              		.section	.bss.FMC_Initialized,"aw",%nobits
 527              		.align	2
 528              		.set	.LANCHOR0,. + 0
 531              	FMC_Initialized:
 532 0000 00000000 		.space	4
 533              		.section	.bss.hsdram1,"aw",%nobits
 534              		.align	2
 535              		.set	.LANCHOR2,. + 0
 538              	hsdram1:
 539 0000 00000000 		.space	52
 539      00000000 
 539      00000000 
 539      00000000 
 539      00000000 
 540              		.text
 541              	.Letext0:
 542              		.file 2 "/home/julius/University/JKU/NetworkedES/arm/arm-none-eabi/include/machine/_default_types.
 543              		.file 3 "/home/julius/University/JKU/NetworkedES/arm/arm-none-eabi/include/sys/_stdint.h"
 544              		.file 4 "Drivers/CMSIS/Device/ST/STM32H7xx/Include/stm32h743xx.h"
 545              		.file 5 "Drivers/STM32H7xx_HAL_Driver/Inc/stm32h7xx_hal_def.h"
 546              		.file 6 "Drivers/STM32H7xx_HAL_Driver/Inc/stm32h7xx_hal_rcc_ex.h"
 547              		.file 7 "Drivers/STM32H7xx_HAL_Driver/Inc/stm32h7xx_hal_gpio.h"
 548              		.file 8 "Drivers/STM32H7xx_HAL_Driver/Inc/stm32h7xx_hal_mdma.h"
 549              		.file 9 "Drivers/STM32H7xx_HAL_Driver/Inc/stm32h7xx_ll_fmc.h"
ARM GAS  /tmp/ccPZIFzb.s 			page 18


 550              		.file 10 "Drivers/STM32H7xx_HAL_Driver/Inc/stm32h7xx_hal_sdram.h"
 551              		.file 11 "Inc/main.h"
 552              		.file 12 "Inc/fmc.h"
 553              		.file 13 "<built-in>"
ARM GAS  /tmp/ccPZIFzb.s 			page 19

